; Function Attrs: mustprogress uwtable
define internal void @_ZN12_GLOBAL__N_128theory_aware_branching_queue31add_theory_aware_branching_infoEjd5lbool(ptr noundef nonnull align 8 dereferenceable(128) %this, i32 noundef %v, double noundef %priority, i32 noundef %phase) unnamed_addr #3 align 2 {
entry:
  %ref.tmp.i1 = alloca %struct._key_data, align 8
  %ref.tmp.i = alloca %struct._key_data.345, align 4
  %ref.tmp = alloca i32, align 4
  %m_theory_vars = getelementptr inbounds i8, ptr %this, i64 80
  store i32 %v, ptr %ref.tmp, align 4
  call void @_ZN14core_hashtableI14int_hash_entryILin2147483648ELin2147483647EE8int_hash10default_eqIjEE6insertEOi(ptr noundef nonnull align 8 dereferenceable(20) %m_theory_vars, ptr noundef nonnull align 4 dereferenceable(4) %ref.tmp)
  %m_theory_var_phase = getelementptr inbounds i8, ptr %this, i64 104
  call void @llvm.lifetime.start.p0(i64 8, ptr nonnull %ref.tmp.i)
  store i32 %v, ptr %ref.tmp.i, align 4
  %m_value.i.i = getelementptr inbounds i8, ptr %ref.tmp.i, i64 4
  store i32 %phase, ptr %m_value.i.i, align 4
  call void @_ZN14core_hashtableI17default_map_entryIj5lboolEN9table2mapIS2_8int_hash10default_eqIjEE15entry_hash_procENS7_13entry_eq_procEE6insertEO9_key_dataIjS1_E(ptr noundef nonnull align 8 dereferenceable(20) %m_theory_var_phase, ptr noundef nonnull align 4 dereferenceable(8) %ref.tmp.i)
  call void @llvm.lifetime.end.p0(i64 8, ptr nonnull %ref.tmp.i)
  %m_theory_var_priority = getelementptr inbounds i8, ptr %this, i64 24
  call void @llvm.lifetime.start.p0(i64 16, ptr nonnull %ref.tmp.i1)
  store i32 %v, ptr %ref.tmp.i1, align 8
  %m_value.i.i2 = getelementptr inbounds i8, ptr %ref.tmp.i1, i64 8
  store double %priority, ptr %m_value.i.i2, align 8
  call void @_ZN14core_hashtableI17default_map_entryIjdEN9table2mapIS1_8int_hash10default_eqIjEE15entry_hash_procENS6_13entry_eq_procEE6insertEO9_key_dataIjdE(ptr noundef nonnull align 8 dereferenceable(20) %m_theory_var_priority, ptr noundef nonnull align 8 dereferenceable(16) %ref.tmp.i1)
  call void @llvm.lifetime.end.p0(i64 16, ptr nonnull %ref.tmp.i1)
  %m_queue = getelementptr inbounds i8, ptr %this, i64 48
  %0 = getelementptr inbounds i8, ptr %this, i64 72
  %m_queue.val = load ptr, ptr %0, align 8
  %cmp.i.i = icmp eq ptr %m_queue.val, null
  br i1 %cmp.i.i, label %_ZNK6vectorIiLb0EjE4sizeEv.exit.i, label %if.end.i.i

if.end.i.i:                                       ; preds = %entry
  %arrayidx.i.i = getelementptr inbounds i8, ptr %m_queue.val, i64 -4
  %1 = load i32, ptr %arrayidx.i.i, align 4
  br label %_ZNK6vectorIiLb0EjE4sizeEv.exit.i

_ZNK6vectorIiLb0EjE4sizeEv.exit.i:                ; preds = %if.end.i.i, %entry
  %retval.0.i.i = phi i32 [ %1, %if.end.i.i ], [ 0, %entry ]
  %cmp.i = icmp sgt i32 %retval.0.i.i, %v
  br i1 %cmp.i, label %_ZNK4heapIN12_GLOBAL__N_119theory_aware_act_ltEE8containsEi.exit, label %if.end5

_ZNK4heapIN12_GLOBAL__N_119theory_aware_act_ltEE8containsEi.exit: ; preds = %_ZNK6vectorIiLb0EjE4sizeEv.exit.i
  %idxprom.i.i = zext i32 %v to i64
  %arrayidx.i2.i = getelementptr inbounds i32, ptr %m_queue.val, i64 %idxprom.i.i
  %2 = load i32, ptr %arrayidx.i2.i, align 4
  %cmp4.i.not = icmp eq i32 %2, 0
  br i1 %cmp4.i.not, label %if.end5, label %if.then

if.then:                                          ; preds = %_ZNK4heapIN12_GLOBAL__N_119theory_aware_act_ltEE8containsEi.exit
  %cmp = fcmp ogt double %priority, 0.000000e+00
  br i1 %cmp, label %if.then2, label %if.else

if.then2:                                         ; preds = %if.then
  %m_values.i.i = getelementptr inbounds i8, ptr %this, i64 64
  %3 = load ptr, ptr %m_values.i.i, align 8
  %idxprom.i.i.i = zext i32 %2 to i64
  %arrayidx.i.i.i = getelementptr inbounds i32, ptr %3, i64 %idxprom.i.i.i
  %4 = load i32, ptr %arrayidx.i.i.i, align 4
  %cmp29.i.i = icmp eq i32 %2, 1
  br i1 %cmp29.i.i, label %_ZN4heapIN12_GLOBAL__N_119theory_aware_act_ltEE9decreasedEi.exit, label %lor.lhs.false.lr.ph.i.i

lor.lhs.false.lr.ph.i.i:                          ; preds = %if.then2
  %5 = getelementptr inbounds i8, ptr %this, i64 56
  br label %lor.lhs.false.i.i

lor.lhs.false.i.i:                                ; preds = %if.end.i.i5, %lor.lhs.false.lr.ph.i.i
  %idx.addr.030.i.i = phi i32 [ %2, %lor.lhs.false.lr.ph.i.i ], [ %shr.i31.i.i, %if.end.i.i5 ]
  %shr.i31.i.i = ashr i32 %idx.addr.030.i.i, 1
  %6 = load ptr, ptr %m_values.i.i, align 8
  %idxprom.i14.i.i = zext i32 %shr.i31.i.i to i64
  %arrayidx.i15.i.i = getelementptr inbounds i32, ptr %6, i64 %idxprom.i14.i.i
  %7 = load i32, ptr %arrayidx.i15.i.i, align 4
  %this.val.i.i = load ptr, ptr %m_queue, align 8
  %this.val12.i.i = load ptr, ptr %5, align 8
  %this.val12.val.i.i = load ptr, ptr %this.val12.i.i, align 8
  %8 = getelementptr i8, ptr %this.val12.i.i, i64 8
  %this.val12.val13.i.i = load i32, ptr %8, align 8
  %call5.i.i = call fastcc noundef zeroext i1 @_ZNK4heapIN12_GLOBAL__N_119theory_aware_act_ltEE9less_thanEii(ptr %this.val.i.i, ptr %this.val12.val.i.i, i32 %this.val12.val13.i.i, i32 noundef %4, i32 noundef %7)
  %idxprom.i18.i.i = zext i32 %idx.addr.030.i.i to i64
  br i1 %call5.i.i, label %if.end.i.i5, label %_ZN4heapIN12_GLOBAL__N_119theory_aware_act_ltEE9decreasedEi.exit

if.end.i.i5:                                      ; preds = %lor.lhs.false.i.i
  %arrayidx.i19.i.i = getelementptr inbounds i32, ptr %6, i64 %idxprom.i18.i.i
  store i32 %7, ptr %arrayidx.i19.i.i, align 4
  %9 = load ptr, ptr %m_values.i.i, align 8
  %arrayidx.i21.i.i = getelementptr inbounds i32, ptr %9, i64 %idxprom.i18.i.i
  %10 = load i32, ptr %arrayidx.i21.i.i, align 4
  %11 = load ptr, ptr %0, align 8
  %idxprom.i22.i.i = zext i32 %10 to i64
  %arrayidx.i23.i.i = getelementptr inbounds i32, ptr %11, i64 %idxprom.i22.i.i
  store i32 %idx.addr.030.i.i, ptr %arrayidx.i23.i.i, align 4
  %cmp.i.i6 = icmp ult i32 %shr.i31.i.i, 2
  br i1 %cmp.i.i6, label %if.end.while.end.loopexit_crit_edge.i.i, label %lor.lhs.false.i.i, !llvm.loop !39

if.end.while.end.loopexit_crit_edge.i.i:          ; preds = %if.end.i.i5
  %.pre.pre.i.i = load ptr, ptr %m_values.i.i, align 8
  br label %_ZN4heapIN12_GLOBAL__N_119theory_aware_act_ltEE9decreasedEi.exit

_ZN4heapIN12_GLOBAL__N_119theory_aware_act_ltEE9decreasedEi.exit: ; preds = %lor.lhs.false.i.i, %if.then2, %if.end.while.end.loopexit_crit_edge.i.i
  %idxprom.i24.pre-phi.i.i = phi i64 [ 1, %if.then2 ], [ %idxprom.i14.i.i, %if.end.while.end.loopexit_crit_edge.i.i ], [ %idxprom.i18.i.i, %lor.lhs.false.i.i ]
  %12 = phi ptr [ %3, %if.then2 ], [ %.pre.pre.i.i, %if.end.while.end.loopexit_crit_edge.i.i ], [ %6, %lor.lhs.false.i.i ]
  %idx.addr.0.lcssa.i.i = phi i32 [ 1, %if.then2 ], [ %shr.i31.i.i, %if.end.while.end.loopexit_crit_edge.i.i ], [ %idx.addr.030.i.i, %lor.lhs.false.i.i ]
  %arrayidx.i25.i.i = getelementptr inbounds i32, ptr %12, i64 %idxprom.i24.pre-phi.i.i
  store i32 %4, ptr %arrayidx.i25.i.i, align 4
  %13 = load ptr, ptr %0, align 8
  %idxprom.i26.i.i = zext i32 %4 to i64
  %arrayidx.i27.i.i = getelementptr inbounds i32, ptr %13, i64 %idxprom.i26.i.i
  store i32 %idx.addr.0.lcssa.i.i, ptr %arrayidx.i27.i.i, align 4
  br label %if.end5

if.else:                                          ; preds = %if.then
  call fastcc void @_ZN4heapIN12_GLOBAL__N_119theory_aware_act_ltEE9increasedEi(ptr noundef nonnull align 8 dereferenceable(32) %m_queue, i32 noundef %v)
  br label %if.end5

if.end5:                                          ; preds = %_ZNK6vectorIiLb0EjE4sizeEv.exit.i, %_ZN4heapIN12_GLOBAL__N_119theory_aware_act_ltEE9decreasedEi.exit, %if.else, %_ZNK4heapIN12_GLOBAL__N_119theory_aware_act_ltEE8containsEi.exit
  ret void
}